; Function Attrs: mustprogress nofree norecurse nosync nounwind null_pointer_is_valid sspstrong willreturn memory(none) uwtable
define internal range(i32 -9, 1) i32 @logcat_text_thread_dump_can_write_encap(i32 noundef %0) #7 {
  switch i32 %0, label %3 [
    i32 -1, label %4
    i32 163, label %2
    i32 167, label %2
    i32 155, label %2
  ]

2:                                                ; preds = %1, %1, %1
  br label %4

3:                                                ; preds = %1
  br label %4

4:                                                ; preds = %1, %3, %2
  %.0 = phi i32 [ -8, %3 ], [ 0, %2 ], [ -9, %1 ]
  ret i32 %.0
}